; Function Attrs: mustprogress nounwind uwtable
define hidden noundef ptr @_ZNK34ShenandoahLoadReferenceBarrierNode5ValueEP8PhaseGVN(ptr nocapture noundef nonnull readonly align 8 dereferenceable(64) %0, ptr nocapture noundef readonly %1) unnamed_addr #0 align 2 {
  %3 = getelementptr inbounds i8, ptr %0, i64 8
  %4 = load ptr, ptr %3, align 8
  %5 = getelementptr inbounds i8, ptr %4, i64 8
  %6 = load ptr, ptr %5, align 8
  %7 = getelementptr inbounds i8, ptr %1, i64 40
  %8 = load ptr, ptr %7, align 8
  %9 = getelementptr inbounds i8, ptr %6, i64 40
  %10 = load i32, ptr %9, align 8
  %11 = getelementptr inbounds i8, ptr %8, i64 16
  %12 = load ptr, ptr %11, align 8
  %13 = zext i32 %10 to i64
  %14 = getelementptr inbounds ptr, ptr %12, i64 %13
  %15 = load ptr, ptr %14, align 8
  %16 = load ptr, ptr @_ZN4Type3TOPE, align 8
  %17 = icmp eq ptr %15, %16
  br i1 %17, label %28, label %18

18:                                               ; preds = %2
  %19 = load ptr, ptr @_ZN7TypePtr8NULL_PTRE, align 8
  %20 = icmp eq ptr %15, %19
  br i1 %20, label %28, label %21

21:                                               ; preds = %18
  %22 = getelementptr inbounds i8, ptr %0, i64 56
  %23 = load i64, ptr %22, align 8
  %24 = and i64 %23, 98304
  %25 = icmp eq i64 %24, 0
  br i1 %25, label %28, label %26

26:                                               ; preds = %21
  %27 = tail call noundef ptr @_ZNK4Type11meet_helperEPKS_b(ptr noundef nonnull align 8 dereferenceable(20) %15, ptr noundef %19, i1 noundef zeroext false) #10
  br label %28

28:                                               ; preds = %21, %18, %2, %26
  %.0 = phi ptr [ %27, %26 ], [ %16, %2 ], [ %15, %18 ], [ %15, %21 ]
  ret ptr %.0
}